; ModuleID = 'bench/mitsuba3/original/osutils.cpp.ll'
source_filename = "bench/mitsuba3/original/osutils.cpp.ll"
target datalayout = "e-m:e-p270:32:32-p271:32:32-p272:64:64-i64:64-i128:128-f80:128-n8:16:32:64-S128"
target triple = "x86_64-pc-linux-gnu"

%struct.timespec = type { i64, i64 }

; Function Attrs: mustprogress nounwind uwtable
define dso_local noundef i32 @_ZN6asmjit9_abi_1_107OSUtils12getTickCountEv() local_unnamed_addr #0 {
  %1 = alloca %struct.timespec, align 8
  call void @llvm.lifetime.start.p0(i64 16, ptr nonnull %1) #3
  %2 = call i32 @clock_gettime(i32 noundef 1, ptr noundef nonnull %1) #3
  %3 = icmp eq i32 %2, 0
  br i1 %3, label %4, label %12, !prof !3

4:                                                ; preds = %0
  %5 = load i64, ptr %1, align 8, !tbaa !4
  %6 = mul i64 %5, 1000
  %7 = getelementptr inbounds i8, ptr %1, i64 8
  %8 = load i64, ptr %7, align 8, !tbaa !9
  %9 = udiv i64 %8, 1000000
  %10 = add i64 %9, %6
  %11 = trunc i64 %10 to i32
  br label %12

12:                                               ; preds = %4, %0
  %13 = phi i32 [ %11, %4 ], [ 0, %0 ]
  call void @llvm.lifetime.end.p0(i64 16, ptr nonnull %1) #3
  ret i32 %13
}

; Function Attrs: mustprogress nocallback nofree nosync nounwind willreturn memory(argmem: readwrite)
declare void @llvm.lifetime.start.p0(i64 immarg, ptr nocapture) #1

; Function Attrs: nounwind
declare i32 @clock_gettime(i32 noundef, ptr noundef) local_unnamed_addr #2

; Function Attrs: mustprogress nocallback nofree nosync nounwind willreturn memory(argmem: readwrite)
declare void @llvm.lifetime.end.p0(i64 immarg, ptr nocapture) #1


!llvm.module.flags = !{!0, !1, !2}

!0 = !{i32 1, !"wchar_size", i32 4}
!1 = !{i32 8, !"PIC Level", i32 2}
!2 = !{i32 7, !"uwtable", i32 2}
!3 = !{!"branch_weights", i32 2000, i32 1}
!4 = !{!5, !6, i64 0}
!5 = !{!"_ZTS8timespec", !6, i64 0, !6, i64 8}
!6 = !{!"long", !7, i64 0}
!7 = !{!"omnipotent char", !8, i64 0}
!8 = !{!"Simple C++ TBAA"}
!9 = !{!5, !6, i64 8}
